target datalayout = "e-m:e-p270:32:32-p271:32:32-p272:64:64-i64:64-i128:128-f80:128-n8:16:32:64-S128"
target triple = "x86_64-pc-linux-gnu"

%"class.cv::VideoCapture" = type <{ ptr, %"struct.cv::Ptr", %"struct.cv::Ptr.0", i8, [7 x i8] }>
%"struct.cv::Ptr" = type { %"class.std::shared_ptr" }
%"class.std::shared_ptr" = type { %"class.std::__shared_ptr" }
%"class.std::__shared_ptr" = type { ptr, %"class.std::__shared_count" }
%"class.std::__shared_count" = type { ptr }
%"struct.cv::Ptr.0" = type { %"class.std::shared_ptr.1" }
%"class.std::shared_ptr.1" = type { %"class.std::__shared_ptr.2" }
%"class.std::__shared_ptr.2" = type { ptr, %"class.std::__shared_count" }

; Function Attrs: mustprogress nounwind uwtable
define linkonce_odr hidden noundef ptr @_ZNKSt12__shared_ptrIN2cv13IVideoCaptureELN9__gnu_cxx12_Lock_policyE2EE3getEv(ptr noundef nonnull align 8 dereferenceable(16) %0) #5 comdat align 2 {
  %2 = alloca ptr, align 8
  store ptr %0, ptr %2, align 8, !tbaa !110
  %3 = load ptr, ptr %2, align 8
  %4 = getelementptr inbounds nuw %"class.std::__shared_ptr.2", ptr %3, i32 0, i32 0
  %5 = load ptr, ptr %4, align 8, !tbaa !112
  ret ptr %5
}

; Function Attrs: inlinehint mustprogress nounwind uwtable
define linkonce_odr hidden noundef zeroext i1 @_ZNK2cv3PtrINS_13IVideoCaptureEE5emptyEv(ptr noundef nonnull align 8 dereferenceable(16) %0) #7 comdat align 2 {
  %2 = alloca ptr, align 8
  store ptr %0, ptr %2, align 8, !tbaa !35
  %3 = load ptr, ptr %2, align 8
  %4 = call noundef ptr @_ZNKSt12__shared_ptrIN2cv13IVideoCaptureELN9__gnu_cxx12_Lock_policyE2EE3getEv(ptr noundef nonnull align 8 dereferenceable(16) %3) #3
  %5 = icmp eq ptr %4, null
  ret i1 %5
}

; Function Attrs: mustprogress nounwind uwtable
define linkonce_odr hidden noundef ptr @_ZNK2cv3PtrINS_13IVideoCaptureEEptEv(ptr noundef nonnull align 8 dereferenceable(16) %0) #5 comdat align 2 {
  %2 = alloca ptr, align 8
  store ptr %0, ptr %2, align 8, !tbaa !35
  %3 = load ptr, ptr %2, align 8
  %4 = call noundef ptr @_ZNKSt12__shared_ptrIN2cv13IVideoCaptureELN9__gnu_cxx12_Lock_policyE2EE3getEv(ptr noundef nonnull align 8 dereferenceable(16) %3) #3
  ret ptr %4
}

; Function Attrs: mustprogress nounwind uwtable
define linkonce_odr hidden noundef zeroext i1 @_ZNKSt12__shared_ptrIN2cv13IVideoCaptureELN9__gnu_cxx12_Lock_policyE2EEcvbEv(ptr noundef nonnull align 8 dereferenceable(16) %0) #5 comdat align 2 {
  %2 = alloca ptr, align 8
  store ptr %0, ptr %2, align 8, !tbaa !110
  %3 = load ptr, ptr %2, align 8
  %4 = getelementptr inbounds nuw %"class.std::__shared_ptr.2", ptr %3, i32 0, i32 0
  %5 = load ptr, ptr %4, align 8, !tbaa !112
  %6 = icmp ne ptr %5, null
  ret i1 %6
}

; Function Attrs: mustprogress uwtable
define noundef double @_ZNK2cv12VideoCapture3getEi(ptr noundef nonnull align 8 dereferenceable(41) %0, i32 noundef %1) unnamed_addr #4 align 2 {
  %3 = alloca double, align 8
  %4 = alloca ptr, align 8
  %5 = alloca i32, align 4
  %6 = alloca i32, align 4
  %7 = alloca i32, align 4
  store ptr %0, ptr %4, align 8, !tbaa !18
  store i32 %1, ptr %5, align 4, !tbaa !39
  %8 = load ptr, ptr %4, align 8
  %9 = load i32, ptr %5, align 4, !tbaa !39
  %10 = icmp eq i32 %9, 42
  br i1 %10, label %11, label %36

11:                                               ; preds = %2
  call void @llvm.lifetime.start.p0(i64 4, ptr %6) #3
  store i32 0, ptr %6, align 4, !tbaa !39
  %12 = getelementptr inbounds nuw %"class.cv::VideoCapture", ptr %8, i32 0, i32 2
  %13 = call noundef zeroext i1 @_ZNKSt12__shared_ptrIN2cv13IVideoCaptureELN9__gnu_cxx12_Lock_policyE2EEcvbEv(ptr noundef nonnull align 8 dereferenceable(16) %12) #3
  br i1 %13, label %14, label %28

14:                                               ; preds = %11
  %15 = getelementptr inbounds nuw %"class.cv::VideoCapture", ptr %8, i32 0, i32 2
  %16 = call noundef ptr @_ZNK2cv3PtrINS_13IVideoCaptureEEptEv(ptr noundef nonnull align 8 dereferenceable(16) %15) #3
  %17 = load ptr, ptr %16, align 8, !tbaa !20
  %18 = getelementptr inbounds ptr, ptr %17, i64 6
  %19 = load ptr, ptr %18, align 8
  %20 = call noundef zeroext i1 %19(ptr noundef nonnull align 8 dereferenceable(8) %16)
  br i1 %20, label %21, label %28

21:                                               ; preds = %14
  %22 = getelementptr inbounds nuw %"class.cv::VideoCapture", ptr %8, i32 0, i32 2
  %23 = call noundef ptr @_ZNK2cv3PtrINS_13IVideoCaptureEEptEv(ptr noundef nonnull align 8 dereferenceable(16) %22) #3
  %24 = load ptr, ptr %23, align 8, !tbaa !20
  %25 = getelementptr inbounds ptr, ptr %24, i64 7
  %26 = load ptr, ptr %25, align 8
  %27 = call noundef i32 %26(ptr noundef nonnull align 8 dereferenceable(8) %23)
  store i32 %27, ptr %6, align 4, !tbaa !39
  br label %28

28:                                               ; preds = %21, %14, %11
  %29 = load i32, ptr %6, align 4, !tbaa !39
  %30 = icmp sle i32 %29, 0
  br i1 %30, label %31, label %32

31:                                               ; preds = %28
  store double -1.000000e+00, ptr %3, align 8
  store i32 1, ptr %7, align 4
  br label %35

32:                                               ; preds = %28
  %33 = load i32, ptr %6, align 4, !tbaa !39
  %34 = sitofp i32 %33 to double
  store double %34, ptr %3, align 8
  store i32 1, ptr %7, align 4
  br label %35

35:                                               ; preds = %32, %31
  call void @llvm.lifetime.end.p0(i64 4, ptr %6) #3
  br label %50

36:                                               ; preds = %2
  %37 = getelementptr inbounds nuw %"class.cv::VideoCapture", ptr %8, i32 0, i32 2
  %38 = call noundef zeroext i1 @_ZNK2cv3PtrINS_13IVideoCaptureEE5emptyEv(ptr noundef nonnull align 8 dereferenceable(16) %37)
  br i1 %38, label %47, label %39

39:                                               ; preds = %36
  %40 = getelementptr inbounds nuw %"class.cv::VideoCapture", ptr %8, i32 0, i32 2
  %41 = call noundef ptr @_ZNK2cv3PtrINS_13IVideoCaptureEEptEv(ptr noundef nonnull align 8 dereferenceable(16) %40) #3
  %42 = load i32, ptr %5, align 4, !tbaa !39
  %43 = load ptr, ptr %41, align 8, !tbaa !20
  %44 = getelementptr inbounds ptr, ptr %43, i64 2
  %45 = load ptr, ptr %44, align 8
  %46 = call noundef double %45(ptr noundef nonnull align 8 dereferenceable(8) %41, i32 noundef %42)
  br label %48

47:                                               ; preds = %36
  br label %48

48:                                               ; preds = %47, %39
  %49 = phi double [ %46, %39 ], [ 0.000000e+00, %47 ]
  store double %49, ptr %3, align 8
  br label %50

50:                                               ; preds = %48, %35
  %51 = load double, ptr %3, align 8
  ret double %51
}