; Function Attrs: mustprogress uwtable
define noundef double @_ZNK2cv12VideoCapture3getEi(ptr noundef nonnull readonly align 8 captures(none) dereferenceable(41) %0, i32 noundef %1) unnamed_addr #3 align 2 {
  %3 = icmp eq i32 %1, 42
  %4 = getelementptr inbounds nuw i8, ptr %0, i64 24
  %5 = load ptr, ptr %4, align 8, !tbaa !90
  %.not = icmp eq ptr %5, null
  br i1 %3, label %6, label %20

6:                                                ; preds = %2
  br i1 %.not, label %.thread, label %7

7:                                                ; preds = %6
  %8 = load ptr, ptr %5, align 8, !tbaa !10
  %9 = getelementptr inbounds nuw i8, ptr %8, i64 48
  %10 = load ptr, ptr %9, align 8
  %11 = tail call noundef zeroext i1 %10(ptr noundef nonnull align 8 dereferenceable(8) %5)
  br i1 %11, label %12, label %.thread

12:                                               ; preds = %7
  %13 = load ptr, ptr %4, align 8, !tbaa !90
  %14 = load ptr, ptr %13, align 8, !tbaa !10
  %15 = getelementptr inbounds nuw i8, ptr %14, i64 56
  %16 = load ptr, ptr %15, align 8
  %17 = tail call noundef i32 %16(ptr noundef nonnull align 8 dereferenceable(8) %13)
  %18 = icmp slt i32 %17, 1
  %19 = uitofp nneg i32 %17 to double
  br i1 %18, label %.thread, label %26

.thread:                                          ; preds = %6, %7, %12
  br label %26

20:                                               ; preds = %2
  br i1 %.not, label %26, label %21

21:                                               ; preds = %20
  %22 = load ptr, ptr %5, align 8, !tbaa !10
  %23 = getelementptr inbounds nuw i8, ptr %22, i64 16
  %24 = load ptr, ptr %23, align 8
  %25 = tail call noundef double %24(ptr noundef nonnull align 8 dereferenceable(8) %5, i32 noundef %1)
  br label %26

26:                                               ; preds = %.thread, %12, %21, %20
  %.1 = phi double [ %25, %21 ], [ 0.000000e+00, %20 ], [ -1.000000e+00, %.thread ], [ %19, %12 ]
  ret double %.1
}